; Function Attrs: nounwind uwtable
define hidden void @png_destroy_read_struct(ptr noundef %0, ptr noundef %1, ptr noundef %2) local_unnamed_addr #0 {
  %.not = icmp eq ptr %0, null
  br i1 %.not, label %.thread, label %4

4:                                                ; preds = %3
  %5 = load ptr, ptr %0, align 8
  %6 = icmp eq ptr %5, null
  br i1 %6, label %.thread, label %7

7:                                                ; preds = %4
  tail call void @png_destroy_info_struct(ptr noundef nonnull %5, ptr noundef %2) #11
  tail call void @png_destroy_info_struct(ptr noundef nonnull %5, ptr noundef %1) #11
  store ptr null, ptr %0, align 8
  tail call void @png_destroy_gamma_table(ptr noundef nonnull %5) #11
  %8 = getelementptr inbounds i8, ptr %5, i64 912
  %9 = load ptr, ptr %8, align 8, !alias.scope !18
  tail call void @png_free(ptr noundef nonnull %5, ptr noundef %9) #11
  store ptr null, ptr %8, align 8, !alias.scope !18
  %10 = getelementptr inbounds i8, ptr %5, i64 1032
  %11 = load ptr, ptr %10, align 8, !alias.scope !18
  tail call void @png_free(ptr noundef nonnull %5, ptr noundef %11) #11
  store ptr null, ptr %10, align 8, !alias.scope !18
  %12 = getelementptr inbounds i8, ptr %5, i64 1008
  %13 = load ptr, ptr %12, align 8, !alias.scope !18
  tail call void @png_free(ptr noundef nonnull %5, ptr noundef %13) #11
  store ptr null, ptr %12, align 8, !alias.scope !18
  %14 = getelementptr inbounds i8, ptr %5, i64 776
  %15 = load ptr, ptr %14, align 8, !alias.scope !18
  tail call void @png_free(ptr noundef nonnull %5, ptr noundef %15) #11
  store ptr null, ptr %14, align 8, !alias.scope !18
  %16 = getelementptr inbounds i8, ptr %5, i64 784
  %17 = load ptr, ptr %16, align 8, !alias.scope !18
  tail call void @png_free(ptr noundef nonnull %5, ptr noundef %17) #11
  store ptr null, ptr %16, align 8, !alias.scope !18
  %18 = getelementptr inbounds i8, ptr %5, i64 824
  %19 = load i32, ptr %18, align 8, !alias.scope !18
  %20 = and i32 %19, 4096
  %.not.i = icmp eq i32 %20, 0
  br i1 %.not.i, label %24, label %21

21:                                               ; preds = %7
  %22 = getelementptr inbounds i8, ptr %5, i64 496
  %23 = load ptr, ptr %22, align 8, !alias.scope !18
  tail call void @png_zfree(ptr noundef nonnull %5, ptr noundef %23) #11
  store ptr null, ptr %22, align 8, !alias.scope !18
  %.pre.i = load i32, ptr %18, align 8, !alias.scope !18
  br label %24

24:                                               ; preds = %21, %7
  %25 = phi i32 [ %.pre.i, %21 ], [ %19, %7 ]
  %26 = and i32 %25, -4097
  store i32 %26, ptr %18, align 8, !alias.scope !18
  %27 = and i32 %25, 8192
  %.not39.i = icmp eq i32 %27, 0
  br i1 %.not39.i, label %png_read_destroy.exit, label %28

28:                                               ; preds = %24
  %29 = getelementptr inbounds i8, ptr %5, i64 632
  %30 = load ptr, ptr %29, align 8, !alias.scope !18
  tail call void @png_free(ptr noundef nonnull %5, ptr noundef %30) #11
  store ptr null, ptr %29, align 8, !alias.scope !18
  %.pre40.i = load i32, ptr %18, align 8, !alias.scope !18
  br label %png_read_destroy.exit

png_read_destroy.exit:                            ; preds = %24, %28
  %31 = phi i32 [ %.pre40.i, %28 ], [ %26, %24 ]
  %32 = and i32 %31, -8193
  store i32 %32, ptr %18, align 8, !alias.scope !18
  %33 = getelementptr inbounds i8, ptr %5, i64 312
  %34 = tail call i32 @inflateEnd(ptr noundef nonnull %33) #11
  %35 = getelementptr inbounds i8, ptr %5, i64 704
  %36 = load ptr, ptr %35, align 8, !alias.scope !18
  tail call void @png_free(ptr noundef nonnull %5, ptr noundef %36) #11
  store ptr null, ptr %35, align 8, !alias.scope !18
  %37 = getelementptr inbounds i8, ptr %5, i64 976
  %38 = load ptr, ptr %37, align 8, !alias.scope !18
  tail call void @png_free(ptr noundef nonnull %5, ptr noundef %38) #11
  store ptr null, ptr %37, align 8, !alias.scope !18
  %39 = getelementptr inbounds i8, ptr %5, i64 856
  %40 = load ptr, ptr %39, align 8, !alias.scope !18
  tail call void @png_free(ptr noundef nonnull %5, ptr noundef %40) #11
  store ptr null, ptr %39, align 8, !alias.scope !18
  %41 = getelementptr inbounds i8, ptr %5, i64 872
  %42 = load ptr, ptr %41, align 8, !alias.scope !18
  tail call void @png_free(ptr noundef nonnull %5, ptr noundef %42) #11
  store ptr null, ptr %41, align 8, !alias.scope !18
  tail call void @png_destroy_png_struct(ptr noundef nonnull %5) #11
  br label %.thread

.thread:                                          ; preds = %3, %4, %png_read_destroy.exit
  ret void
}